Certificate:
    Data:
        Version: 3 (0x2)
        Serial Number: 4505 (0x1199)
    Signature Algorithm: sha256WithRSAEncryption
        Issuer: C=US, ST=Washington, L=Seattle, O=getaCert - www.getacert.com
        Validity
            Not Before: Dec 13 08:05:41 2017 GMT
            Not After : Feb 11 08:05:41 2018 GMT
        Subject: C=BR, ST=PE, L=GARANHUNS, CN=SERVIDOR SEGURANCA
        Subject Public Key Info:
            Public Key Algorithm: rsaEncryption
                Public-Key: (2048 bit)
                Modulus:
                    00:dd:a8:f6:8e:3d:9d:a8:83:e3:20:2c:d8:f8:2a:
                    2c:5a:3c:56:1d:cf:0c:93:df:10:ae:1e:07:3b:26:
                    d0:08:d7:3c:00:6d:a4:2c:54:21:68:22:c8:72:aa:
                    3c:45:50:ec:c2:3c:5a:7c:2b:74:2a:d4:23:ad:12:
                    ce:81:20:db:bd:e6:c1:19:2a:8d:ab:2e:cb:e8:9f:
                    4d:15:fd:03:c4:9c:76:37:16:6f:8f:85:0a:16:ec:
                    1c:c3:14:2a:5c:bc:36:e2:81:f1:07:19:46:c8:15:
                    ee:5d:a7:53:0b:42:6b:ad:6a:2e:8e:3b:c0:31:5b:
                    6c:5a:d7:c7:47:05:5c:48:34:37:ea:1b:e5:d9:d8:
                    d7:df:0b:83:ac:6f:26:b4:b8:c8:ec:c6:ea:1b:ff:
                    75:5e:58:b0:b2:23:d5:cd:a4:ca:62:06:e7:77:6a:
                    c9:d4:35:be:aa:5a:42:1f:c8:00:75:d7:2e:a9:40:
                    57:2b:18:eb:b8:60:ff:39:d5:8e:57:9e:81:7e:97:
                    8b:e4:18:a2:f2:41:6b:b0:de:af:ed:29:e1:93:b6:
                    c0:6f:f0:7a:23:45:a8:92:28:31:8d:c1:3b:8f:0a:
                    30:05:9c:0f:1f:12:c6:ac:12:b6:0e:d0:8a:d0:75:
                    57:27:7e:4f:52:d9:ac:76:ce:d2:cd:7c:9c:30:9e:
                    2a:79
                Exponent: 65537 (0x10001)
        X509v3 extensions:
            X509v3 Basic Constraints: 
                CA:FALSE
            Netscape Cert Type: 
                SSL Client, SSL Server, S/MIME, Object Signing
            X509v3 Key Usage: 
                Key Encipherment
    Signature Algorithm: sha256WithRSAEncryption
         63:d2:66:aa:6d:71:a4:c7:c0:e7:fb:74:bc:74:f8:4b:70:22:
         33:9d:79:8b:95:fe:d6:b7:ab:b2:27:76:61:d7:dc:aa:e8:2f:
         a3:5a:f3:7a:5a:08:17:e3:cf:b5:09:bb:bc:29:36:7d:9c:3f:
         39:c4:2d:7b:76:d6:c8:f9:a0:1c:70:a1:ff:dd:e6:ba:f6:95:
         2b:d7:3d:16:88:17:7d:5f:de:e4:11:1e:ff:75:a1:46:66:53:
         e1:ac:90:c9:92:f4:52:7f:33:04:fa:f1:5b:07:06:a8:fd:ad:
         4d:2d:38:a7:cb:fc:0d:ef:25:65:51:64:6c:a1:73:4c:fc:ac:
         2a:2e:28:e1:0d:09:55:c8:40:fe:0c:07:0b:04:ae:b6:37:4e:
         96:75:9e:96:26:d9:fc:ea:c4:43:12:61:55:a9:22:95:ac:f6:
         fb:91:a7:67:66:b7:1d:1f:48:52:ed:f8:03:4a:af:9a:45:e3:
         50:6f:31:88:57:f2:71:6a:1c:8a:30:51:19:b2:a1:94:c8:4d:
         54:09:72:68:22:68:fe:5a:21:4d:73:ba:15:b3:07:49:a3:4e:
         42:3d:f5:ed:ea:ce:97:27:c6:82:1c:2b:d8:c6:00:b7:b6:36:
         82:d3:8e:d8:51:dc:3a:03:85:00:79:18:42:3a:21:fa:91:5a:
         ac:97:bc:b5
-----BEGIN CERTIFICATE-----
MIIDTjCCAjagAwIBAgICEZkwDQYJKoZIhvcNAQELBQAwWjELMAkGA1UEBhMCVVMx
EzARBgNVBAgTCldhc2hpbmd0b24xEDAOBgNVBAcTB1NlYXR0bGUxJDAiBgNVBAoT
G2dldGFDZXJ0IC0gd3d3LmdldGFjZXJ0LmNvbTAeFw0xNzEyMTMwODA1NDFaFw0x
ODAyMTEwODA1NDFaMEsxCzAJBgNVBAYTAkJSMQswCQYDVQQIEwJQRTESMBAGA1UE
BxMJR0FSQU5IVU5TMRswGQYDVQQDExJTRVJWSURPUiBTRUdVUkFOQ0EwggEiMA0G
CSqGSIb3DQEBAQUAA4IBDwAwggEKAoIBAQDdqPaOPZ2og+MgLNj4KixaPFYdzwyT
3xCuHgc7JtAI1zwAbaQsVCFoIshyqjxFUOzCPFp8K3Qq1COtEs6BINu95sEZKo2r
Lsvon00V/QPEnHY3Fm+PhQoW7BzDFCpcvDbigfEHGUbIFe5dp1MLQmutai6OO8Ax
W2xa18dHBVxINDfqG+XZ2NffC4Osbya0uMjsxuob/3VeWLCyI9XNpMpiBud3asnU
Nb6qWkIfyAB11y6pQFcrGOu4YP851Y5XnoF+l4vkGKLyQWuw3q/tKeGTtsBv8Hoj
RaiSKDGNwTuPCjAFnA8fEsasErYO0IrQdVcnfk9S2ax2ztLNfJwwnip5AgMBAAGj
LTArMAkGA1UdEwQCMAAwEQYJYIZIAYb4QgEBBAQDAgTwMAsGA1UdDwQEAwIFIDAN
BgkqhkiG9w0BAQsFAAOCAQEAY9Jmqm1xpMfA5/t0vHT4S3AiM515i5X+1rersid2
Ydfcqugvo1rzeloIF+PPtQm7vCk2fZw/OcQte3bWyPmgHHCh/93muvaVK9c9FogX
fV/e5BEe/3WhRmZT4ayQyZL0Un8zBPrxWwcGqP2tTS04p8v8De8lZVFkbKFzTPys
Ki4o4Q0JVchA/gwHCwSutjdOlnWelibZ/OrEQxJhVakilaz2+5GnZ2a3HR9IUu34
A0qvmkXjUG8xiFfycWocijBRGbKhlMhNVAlyaCJo/lohTXO6FbMHSaNOQj317erO
lyfGghwr2MYAt7Y2gtOO2FHcOgOFAHkYQjoh+pFarJe8tQ==
-----END CERTIFICATE-----
